; Function Attrs: mustprogress nofree norecurse nosync nounwind willreturn memory(read, inaccessiblemem: none) uwtable
define dso_local noundef range(i32 256, 258) i32 @_ZNK4llvm17X86TargetLowering15getAddressSpaceEv(ptr noundef nonnull readonly align 8 captures(none) dereferenceable(408160) %0) local_unnamed_addr #5 align 2 {
  %2 = getelementptr inbounds nuw i8, ptr %0, i64 408128
  %3 = load ptr, ptr %2, align 8
  %4 = getelementptr inbounds nuw i8, ptr %3, i64 455
  %5 = load i8, ptr %4, align 1
  %6 = trunc i8 %5 to i1
  br i1 %6, label %7, label %14

7:                                                ; preds = %1
  %8 = getelementptr inbounds nuw i8, ptr %0, i64 8
  %9 = load ptr, ptr %8, align 8
  %10 = getelementptr inbounds nuw i8, ptr %9, i64 652
  %11 = load i32, ptr %10, align 4
  %12 = icmp eq i32 %11, 2
  %13 = select i1 %12, i32 256, i32 257
  br label %14

14:                                               ; preds = %1, %7
  %.0 = phi i32 [ %13, %7 ], [ 256, %1 ]
  ret i32 %.0
}